; Function Attrs: mustprogress uwtable
define noundef nonnull align 8 dereferenceable(16) ptr @_ZN2cv4gapi4onnx8PyParams10cfgMeanStdERKNSt7__cxx1112basic_stringIcSt11char_traitsIcESaIcEEERKNS_7Scalar_IdEESE_(ptr noundef nonnull readonly returned align 8 dereferenceable(16) %0, ptr noundef nonnull align 8 dereferenceable(32) %1, ptr noundef nonnull readonly align 8 captures(none) dereferenceable(32) %2, ptr noundef nonnull readonly align 8 captures(none) dereferenceable(32) %3) local_unnamed_addr #3 align 2 {
  %5 = load ptr, ptr %0, align 8, !tbaa !6
  %.sroa.0.0.copyload.i = load double, ptr %2, align 8, !tbaa !22
  %.sroa.4.0..sroa_idx.i = getelementptr inbounds nuw i8, ptr %2, i64 8
  %.sroa.4.0.copyload.i = load double, ptr %.sroa.4.0..sroa_idx.i, align 8, !tbaa !22
  %.sroa.5.0..sroa_idx.i = getelementptr inbounds nuw i8, ptr %2, i64 16
  %.sroa.5.0.copyload.i = load double, ptr %.sroa.5.0..sroa_idx.i, align 8, !tbaa !22
  %.sroa.6.0..sroa_idx.i = getelementptr inbounds nuw i8, ptr %2, i64 24
  %.sroa.6.0.copyload.i = load double, ptr %.sroa.6.0..sroa_idx.i, align 8, !tbaa !22
  %.sroa.7.32.copyload.i = load double, ptr %3, align 8, !tbaa !22
  %.sroa.9.32..sroa_idx.i = getelementptr inbounds nuw i8, ptr %3, i64 8
  %.sroa.9.32.copyload.i = load double, ptr %.sroa.9.32..sroa_idx.i, align 8, !tbaa !22
  %.sroa.10.32..sroa_idx.i = getelementptr inbounds nuw i8, ptr %3, i64 16
  %.sroa.10.32.copyload.i = load double, ptr %.sroa.10.32..sroa_idx.i, align 8, !tbaa !22
  %.sroa.11.32..sroa_idx.i = getelementptr inbounds nuw i8, ptr %3, i64 24
  %.sroa.11.32.copyload.i = load double, ptr %.sroa.11.32..sroa_idx.i, align 8, !tbaa !22
  %6 = getelementptr inbounds nuw i8, ptr %5, i64 328
  %7 = tail call noundef nonnull align 8 dereferenceable(64) ptr @_ZNSt8__detail9_Map_baseINSt7__cxx1112basic_stringIcSt11char_traitsIcESaIcEEESt4pairIKS6_S7_IN2cv7Scalar_IdEESB_EESaISD_ENS_10_Select1stESt8equal_toIS6_ESt4hashIS6_ENS_18_Mod_range_hashingENS_20_Default_ranged_hashENS_20_Prime_rehash_policyENS_17_Hashtable_traitsILb1ELb0ELb1EEELb1EEixERS8_(ptr noundef nonnull align 8 dereferenceable(56) %6, ptr noundef nonnull align 8 dereferenceable(32) %1)
  store double %.sroa.0.0.copyload.i, ptr %7, align 8, !tbaa !22
  %8 = getelementptr inbounds nuw i8, ptr %7, i64 8
  store double %.sroa.4.0.copyload.i, ptr %8, align 8, !tbaa !22
  %9 = getelementptr inbounds nuw i8, ptr %7, i64 16
  store double %.sroa.5.0.copyload.i, ptr %9, align 8, !tbaa !22
  %10 = getelementptr inbounds nuw i8, ptr %7, i64 24
  store double %.sroa.6.0.copyload.i, ptr %10, align 8, !tbaa !22
  %11 = getelementptr inbounds nuw i8, ptr %7, i64 32
  store double %.sroa.7.32.copyload.i, ptr %11, align 8, !tbaa !22
  %12 = getelementptr inbounds nuw i8, ptr %7, i64 40
  store double %.sroa.9.32.copyload.i, ptr %12, align 8, !tbaa !22
  %13 = getelementptr inbounds nuw i8, ptr %7, i64 48
  store double %.sroa.10.32.copyload.i, ptr %13, align 8, !tbaa !22
  %14 = getelementptr inbounds nuw i8, ptr %7, i64 56
  store double %.sroa.11.32.copyload.i, ptr %14, align 8, !tbaa !22
  ret ptr %0
}